target datalayout = "e-m:e-p270:32:32-p271:32:32-p272:64:64-i64:64-i128:128-f80:128-n8:16:32:64-S128"
target triple = "x86_64-pc-linux-gnu"

%struct.jv_parser = type { ptr, i32, i32, i32, i32, i32, i32, ptr, i32, i32, %struct.jv, i32, %struct.jv, %struct.jv, ptr, i32, i32, i32, i32, %struct.dtoa_context, i32, i8 }
%struct.jv = type { i8, i8, i16, i32, %union.anon }
%union.anon = type { ptr }
%struct.dtoa_context = type { [8 x ptr], ptr }

@UTF8_BOM = internal constant [3 x i8] c"\EF\BB\BF", align 1
@.str.9 = private unnamed_addr constant [29 x i8] c"Unexpected extra JSON values\00", align 1
@.str.10 = private unnamed_addr constant [20 x i8] c"Expected JSON value\00", align 1
@.str.11 = private unnamed_addr constant [24 x i8] c"%s (while parsing '%s')\00", align 1

; Function Attrs: nounwind uwtable
define internal void @parser_free(ptr noundef %0) #0 {
  %2 = alloca ptr, align 8
  store ptr %0, ptr %2, align 8, !tbaa !8
  %3 = load ptr, ptr %2, align 8, !tbaa !8
  call void @parser_reset(ptr noundef %3)
  %4 = load ptr, ptr %2, align 8, !tbaa !8
  %5 = getelementptr inbounds nuw %struct.jv_parser, ptr %4, i32 0, i32 10
  %6 = getelementptr inbounds nuw { i64, ptr }, ptr %5, i32 0, i32 0
  %7 = load i64, ptr %6, align 8
  %8 = getelementptr inbounds nuw { i64, ptr }, ptr %5, i32 0, i32 1
  %9 = load ptr, ptr %8, align 8
  call void @jv_free(i64 %7, ptr %9)
  %10 = load ptr, ptr %2, align 8, !tbaa !8
  %11 = getelementptr inbounds nuw %struct.jv_parser, ptr %10, i32 0, i32 12
  %12 = getelementptr inbounds nuw { i64, ptr }, ptr %11, i32 0, i32 0
  %13 = load i64, ptr %12, align 8
  %14 = getelementptr inbounds nuw { i64, ptr }, ptr %11, i32 0, i32 1
  %15 = load ptr, ptr %14, align 8
  call void @jv_free(i64 %13, ptr %15)
  %16 = load ptr, ptr %2, align 8, !tbaa !8
  %17 = getelementptr inbounds nuw %struct.jv_parser, ptr %16, i32 0, i32 7
  %18 = load ptr, ptr %17, align 8, !tbaa !21
  call void @jv_mem_free(ptr noundef %18)
  %19 = load ptr, ptr %2, align 8, !tbaa !8
  %20 = getelementptr inbounds nuw %struct.jv_parser, ptr %19, i32 0, i32 14
  %21 = load ptr, ptr %20, align 8, !tbaa !25
  call void @jv_mem_free(ptr noundef %21)
  %22 = load ptr, ptr %2, align 8, !tbaa !8
  %23 = getelementptr inbounds nuw %struct.jv_parser, ptr %22, i32 0, i32 19
  call void @jvp_dtoa_context_free(ptr noundef %23)
  ret void
}

; Function Attrs: nounwind uwtable
define internal i32 @jv_is_valid(i64 %0, ptr %1) #0 {
  %3 = alloca %struct.jv, align 8
  %4 = getelementptr inbounds nuw { i64, ptr }, ptr %3, i32 0, i32 0
  store i64 %0, ptr %4, align 8
  %5 = getelementptr inbounds nuw { i64, ptr }, ptr %3, i32 0, i32 1
  store ptr %1, ptr %5, align 8
  %6 = getelementptr inbounds nuw { i64, ptr }, ptr %3, i32 0, i32 0
  %7 = load i64, ptr %6, align 8
  %8 = getelementptr inbounds nuw { i64, ptr }, ptr %3, i32 0, i32 1
  %9 = load ptr, ptr %8, align 8
  %10 = call i32 @jv_get_kind(i64 %7, ptr %9)
  %11 = icmp ne i32 %10, 0
  %12 = zext i1 %11 to i32
  ret i32 %12
}

; Function Attrs: nounwind uwtable
define dso_local void @jv_parser_set_buf(ptr noundef %0, ptr noundef %1, i32 noundef %2, i32 noundef %3) #0 {
  %5 = alloca ptr, align 8
  %6 = alloca ptr, align 8
  %7 = alloca i32, align 4
  %8 = alloca i32, align 4
  store ptr %0, ptr %5, align 8, !tbaa !8
  store ptr %1, ptr %6, align 8, !tbaa !37
  store i32 %2, ptr %7, align 4, !tbaa !4
  store i32 %3, ptr %8, align 4, !tbaa !4
  br label %9

9:                                                ; preds = %53, %4
  %10 = load i32, ptr %7, align 4, !tbaa !4
  %11 = icmp sgt i32 %10, 0
  br i1 %11, label %12, label %18

12:                                               ; preds = %9
  %13 = load ptr, ptr %5, align 8, !tbaa !8
  %14 = getelementptr inbounds nuw %struct.jv_parser, ptr %13, i32 0, i32 5
  %15 = load i32, ptr %14, align 8, !tbaa !34
  %16 = zext i32 %15 to i64
  %17 = icmp ult i64 %16, 3
  br label %18

18:                                               ; preds = %12, %9
  %19 = phi i1 [ false, %9 ], [ %17, %12 ]
  br i1 %19, label %20, label %54

20:                                               ; preds = %18
  %21 = load ptr, ptr %6, align 8, !tbaa !37
  %22 = load i8, ptr %21, align 1, !tbaa !19
  %23 = zext i8 %22 to i32
  %24 = load ptr, ptr %5, align 8, !tbaa !8
  %25 = getelementptr inbounds nuw %struct.jv_parser, ptr %24, i32 0, i32 5
  %26 = load i32, ptr %25, align 8, !tbaa !34
  %27 = zext i32 %26 to i64
  %28 = getelementptr inbounds nuw [3 x i8], ptr @UTF8_BOM, i64 0, i64 %27
  %29 = load i8, ptr %28, align 1, !tbaa !19
  %30 = zext i8 %29 to i32
  %31 = icmp eq i32 %23, %30
  br i1 %31, label %32, label %41

32:                                               ; preds = %20
  %33 = load ptr, ptr %6, align 8, !tbaa !37
  %34 = getelementptr inbounds nuw i8, ptr %33, i32 1
  store ptr %34, ptr %6, align 8, !tbaa !37
  %35 = load i32, ptr %7, align 4, !tbaa !4
  %36 = add nsw i32 %35, -1
  store i32 %36, ptr %7, align 4, !tbaa !4
  %37 = load ptr, ptr %5, align 8, !tbaa !8
  %38 = getelementptr inbounds nuw %struct.jv_parser, ptr %37, i32 0, i32 5
  %39 = load i32, ptr %38, align 8, !tbaa !34
  %40 = add i32 %39, 1
  store i32 %40, ptr %38, align 8, !tbaa !34
  br label %53

41:                                               ; preds = %20
  %42 = load ptr, ptr %5, align 8, !tbaa !8
  %43 = getelementptr inbounds nuw %struct.jv_parser, ptr %42, i32 0, i32 5
  %44 = load i32, ptr %43, align 8, !tbaa !34
  %45 = icmp eq i32 %44, 0
  br i1 %45, label %46, label %49

46:                                               ; preds = %41
  %47 = load ptr, ptr %5, align 8, !tbaa !8
  %48 = getelementptr inbounds nuw %struct.jv_parser, ptr %47, i32 0, i32 5
  store i32 3, ptr %48, align 8, !tbaa !34
  br label %52

49:                                               ; preds = %41
  %50 = load ptr, ptr %5, align 8, !tbaa !8
  %51 = getelementptr inbounds nuw %struct.jv_parser, ptr %50, i32 0, i32 5
  store i32 255, ptr %51, align 8, !tbaa !34
  br label %52

52:                                               ; preds = %49, %46
  br label %53

53:                                               ; preds = %52, %32
  br label %9, !llvm.loop !38

54:                                               ; preds = %18
  %55 = load ptr, ptr %6, align 8, !tbaa !37
  %56 = load ptr, ptr %5, align 8, !tbaa !8
  %57 = getelementptr inbounds nuw %struct.jv_parser, ptr %56, i32 0, i32 0
  store ptr %55, ptr %57, align 8, !tbaa !30
  %58 = load i32, ptr %7, align 4, !tbaa !4
  %59 = load ptr, ptr %5, align 8, !tbaa !8
  %60 = getelementptr inbounds nuw %struct.jv_parser, ptr %59, i32 0, i32 1
  store i32 %58, ptr %60, align 8, !tbaa !33
  %61 = load ptr, ptr %5, align 8, !tbaa !8
  %62 = getelementptr inbounds nuw %struct.jv_parser, ptr %61, i32 0, i32 2
  store i32 0, ptr %62, align 4, !tbaa !32
  %63 = load i32, ptr %8, align 4, !tbaa !4
  %64 = load ptr, ptr %5, align 8, !tbaa !8
  %65 = getelementptr inbounds nuw %struct.jv_parser, ptr %64, i32 0, i32 3
  store i32 %63, ptr %65, align 8, !tbaa !31
  ret void
}

; Function Attrs: nounwind uwtable
define dso_local { i64, ptr } @jv_parse_sized_custom_flags(ptr noundef %0, i32 noundef %1, i32 noundef %2) #0 {
  %4 = alloca %struct.jv, align 8
  %5 = alloca ptr, align 8
  %6 = alloca i32, align 4
  %7 = alloca i32, align 4
  %8 = alloca %struct.jv_parser, align 8
  %9 = alloca %struct.jv, align 8
  %10 = alloca %struct.jv, align 8
  %11 = alloca %struct.jv, align 8
  %12 = alloca %struct.jv, align 8
  %13 = alloca %struct.jv, align 8
  %14 = alloca %struct.jv, align 8
  %15 = alloca %struct.jv, align 8
  %16 = alloca %struct.jv, align 8
  %17 = alloca %struct.jv, align 8
  %18 = alloca %struct.jv, align 8
  %19 = alloca %struct.jv, align 8
  store ptr %0, ptr %5, align 8, !tbaa !37
  store i32 %1, ptr %6, align 4, !tbaa !4
  store i32 %2, ptr %7, align 4, !tbaa !4
  call void @llvm.lifetime.start.p0(i64 208, ptr %8) #6
  %20 = load i32, ptr %7, align 4, !tbaa !4
  call void @parser_init(ptr noundef %8, i32 noundef %20)
  %21 = load ptr, ptr %5, align 8, !tbaa !37
  %22 = load i32, ptr %6, align 4, !tbaa !4
  call void @jv_parser_set_buf(ptr noundef %8, ptr noundef %21, i32 noundef %22, i32 noundef 0)
  %23 = call { i64, ptr } @jv_parser_next(ptr noundef %8)
  %24 = getelementptr inbounds nuw { i64, ptr }, ptr %4, i32 0, i32 0
  %25 = extractvalue { i64, ptr } %23, 0
  store i64 %25, ptr %24, align 8
  %26 = getelementptr inbounds nuw { i64, ptr }, ptr %4, i32 0, i32 1
  %27 = extractvalue { i64, ptr } %23, 1
  store ptr %27, ptr %26, align 8
  %28 = getelementptr inbounds nuw { i64, ptr }, ptr %4, i32 0, i32 0
  %29 = load i64, ptr %28, align 8
  %30 = getelementptr inbounds nuw { i64, ptr }, ptr %4, i32 0, i32 1
  %31 = load ptr, ptr %30, align 8
  %32 = call i32 @jv_is_valid(i64 %29, ptr %31)
  %33 = icmp ne i32 %32, 0
  br i1 %33, label %34, label %97

34:                                               ; preds = %3
  call void @llvm.lifetime.start.p0(i64 16, ptr %9) #6
  %35 = call { i64, ptr } @jv_parser_next(ptr noundef %8)
  %36 = getelementptr inbounds nuw { i64, ptr }, ptr %9, i32 0, i32 0
  %37 = extractvalue { i64, ptr } %35, 0
  store i64 %37, ptr %36, align 8
  %38 = getelementptr inbounds nuw { i64, ptr }, ptr %9, i32 0, i32 1
  %39 = extractvalue { i64, ptr } %35, 1
  store ptr %39, ptr %38, align 8
  %40 = getelementptr inbounds nuw { i64, ptr }, ptr %9, i32 0, i32 0
  %41 = load i64, ptr %40, align 8
  %42 = getelementptr inbounds nuw { i64, ptr }, ptr %9, i32 0, i32 1
  %43 = load ptr, ptr %42, align 8
  %44 = call i32 @jv_is_valid(i64 %41, ptr %43)
  %45 = icmp ne i32 %44, 0
  br i1 %45, label %46, label %69

46:                                               ; preds = %34
  %47 = getelementptr inbounds nuw { i64, ptr }, ptr %4, i32 0, i32 0
  %48 = load i64, ptr %47, align 8
  %49 = getelementptr inbounds nuw { i64, ptr }, ptr %4, i32 0, i32 1
  %50 = load ptr, ptr %49, align 8
  call void @jv_free(i64 %48, ptr %50)
  %51 = getelementptr inbounds nuw { i64, ptr }, ptr %9, i32 0, i32 0
  %52 = load i64, ptr %51, align 8
  %53 = getelementptr inbounds nuw { i64, ptr }, ptr %9, i32 0, i32 1
  %54 = load ptr, ptr %53, align 8
  call void @jv_free(i64 %52, ptr %54)
  call void @llvm.lifetime.start.p0(i64 16, ptr %10) #6
  %55 = call { i64, ptr } @jv_string(ptr noundef @.str.9)
  %56 = getelementptr inbounds nuw { i64, ptr }, ptr %11, i32 0, i32 0
  %57 = extractvalue { i64, ptr } %55, 0
  store i64 %57, ptr %56, align 8
  %58 = getelementptr inbounds nuw { i64, ptr }, ptr %11, i32 0, i32 1
  %59 = extractvalue { i64, ptr } %55, 1
  store ptr %59, ptr %58, align 8
  %60 = getelementptr inbounds nuw { i64, ptr }, ptr %11, i32 0, i32 0
  %61 = load i64, ptr %60, align 8
  %62 = getelementptr inbounds nuw { i64, ptr }, ptr %11, i32 0, i32 1
  %63 = load ptr, ptr %62, align 8
  %64 = call { i64, ptr } @jv_invalid_with_msg(i64 %61, ptr %63)
  %65 = getelementptr inbounds nuw { i64, ptr }, ptr %10, i32 0, i32 0
  %66 = extractvalue { i64, ptr } %64, 0
  store i64 %66, ptr %65, align 8
  %67 = getelementptr inbounds nuw { i64, ptr }, ptr %10, i32 0, i32 1
  %68 = extractvalue { i64, ptr } %64, 1
  store ptr %68, ptr %67, align 8
  call void @llvm.memcpy.p0.p0.i64(ptr align 8 %4, ptr align 8 %10, i64 16, i1 false), !tbaa.struct !18
  call void @llvm.lifetime.end.p0(i64 16, ptr %10) #6
  br label %96

69:                                               ; preds = %34
  %70 = getelementptr inbounds nuw { i64, ptr }, ptr %9, i32 0, i32 0
  %71 = load i64, ptr %70, align 8
  %72 = getelementptr inbounds nuw { i64, ptr }, ptr %9, i32 0, i32 1
  %73 = load ptr, ptr %72, align 8
  %74 = call { i64, ptr } @jv_copy(i64 %71, ptr %73)
  %75 = getelementptr inbounds nuw { i64, ptr }, ptr %12, i32 0, i32 0
  %76 = extractvalue { i64, ptr } %74, 0
  store i64 %76, ptr %75, align 8
  %77 = getelementptr inbounds nuw { i64, ptr }, ptr %12, i32 0, i32 1
  %78 = extractvalue { i64, ptr } %74, 1
  store ptr %78, ptr %77, align 8
  %79 = getelementptr inbounds nuw { i64, ptr }, ptr %12, i32 0, i32 0
  %80 = load i64, ptr %79, align 8
  %81 = getelementptr inbounds nuw { i64, ptr }, ptr %12, i32 0, i32 1
  %82 = load ptr, ptr %81, align 8
  %83 = call i32 @jv_invalid_has_msg(i64 %80, ptr %82)
  %84 = icmp ne i32 %83, 0
  br i1 %84, label %85, label %90

85:                                               ; preds = %69
  %86 = getelementptr inbounds nuw { i64, ptr }, ptr %4, i32 0, i32 0
  %87 = load i64, ptr %86, align 8
  %88 = getelementptr inbounds nuw { i64, ptr }, ptr %4, i32 0, i32 1
  %89 = load ptr, ptr %88, align 8
  call void @jv_free(i64 %87, ptr %89)
  call void @llvm.memcpy.p0.p0.i64(ptr align 8 %4, ptr align 8 %9, i64 16, i1 false), !tbaa.struct !18
  br label %95

90:                                               ; preds = %69
  %91 = getelementptr inbounds nuw { i64, ptr }, ptr %9, i32 0, i32 0
  %92 = load i64, ptr %91, align 8
  %93 = getelementptr inbounds nuw { i64, ptr }, ptr %9, i32 0, i32 1
  %94 = load ptr, ptr %93, align 8
  call void @jv_free(i64 %92, ptr %94)
  br label %95

95:                                               ; preds = %90, %85
  br label %96

96:                                               ; preds = %95, %46
  call void @llvm.lifetime.end.p0(i64 16, ptr %9) #6
  br label %134

97:                                               ; preds = %3
  %98 = getelementptr inbounds nuw { i64, ptr }, ptr %4, i32 0, i32 0
  %99 = load i64, ptr %98, align 8
  %100 = getelementptr inbounds nuw { i64, ptr }, ptr %4, i32 0, i32 1
  %101 = load ptr, ptr %100, align 8
  %102 = call { i64, ptr } @jv_copy(i64 %99, ptr %101)
  %103 = getelementptr inbounds nuw { i64, ptr }, ptr %13, i32 0, i32 0
  %104 = extractvalue { i64, ptr } %102, 0
  store i64 %104, ptr %103, align 8
  %105 = getelementptr inbounds nuw { i64, ptr }, ptr %13, i32 0, i32 1
  %106 = extractvalue { i64, ptr } %102, 1
  store ptr %106, ptr %105, align 8
  %107 = getelementptr inbounds nuw { i64, ptr }, ptr %13, i32 0, i32 0
  %108 = load i64, ptr %107, align 8
  %109 = getelementptr inbounds nuw { i64, ptr }, ptr %13, i32 0, i32 1
  %110 = load ptr, ptr %109, align 8
  %111 = call i32 @jv_invalid_has_msg(i64 %108, ptr %110)
  %112 = icmp ne i32 %111, 0
  br i1 %112, label %113, label %114

113:                                              ; preds = %97
  br label %133

114:                                              ; preds = %97
  %115 = getelementptr inbounds nuw { i64, ptr }, ptr %4, i32 0, i32 0
  %116 = load i64, ptr %115, align 8
  %117 = getelementptr inbounds nuw { i64, ptr }, ptr %4, i32 0, i32 1
  %118 = load ptr, ptr %117, align 8
  call void @jv_free(i64 %116, ptr %118)
  call void @llvm.lifetime.start.p0(i64 16, ptr %14) #6
  %119 = call { i64, ptr } @jv_string(ptr noundef @.str.10)
  %120 = getelementptr inbounds nuw { i64, ptr }, ptr %15, i32 0, i32 0
  %121 = extractvalue { i64, ptr } %119, 0
  store i64 %121, ptr %120, align 8
  %122 = getelementptr inbounds nuw { i64, ptr }, ptr %15, i32 0, i32 1
  %123 = extractvalue { i64, ptr } %119, 1
  store ptr %123, ptr %122, align 8
  %124 = getelementptr inbounds nuw { i64, ptr }, ptr %15, i32 0, i32 0
  %125 = load i64, ptr %124, align 8
  %126 = getelementptr inbounds nuw { i64, ptr }, ptr %15, i32 0, i32 1
  %127 = load ptr, ptr %126, align 8
  %128 = call { i64, ptr } @jv_invalid_with_msg(i64 %125, ptr %127)
  %129 = getelementptr inbounds nuw { i64, ptr }, ptr %14, i32 0, i32 0
  %130 = extractvalue { i64, ptr } %128, 0
  store i64 %130, ptr %129, align 8
  %131 = getelementptr inbounds nuw { i64, ptr }, ptr %14, i32 0, i32 1
  %132 = extractvalue { i64, ptr } %128, 1
  store ptr %132, ptr %131, align 8
  call void @llvm.memcpy.p0.p0.i64(ptr align 8 %4, ptr align 8 %14, i64 16, i1 false), !tbaa.struct !18
  call void @llvm.lifetime.end.p0(i64 16, ptr %14) #6
  br label %133

133:                                              ; preds = %114, %113
  br label %134

134:                                              ; preds = %133, %96
  call void @parser_free(ptr noundef %8)
  %135 = getelementptr inbounds nuw { i64, ptr }, ptr %4, i32 0, i32 0
  %136 = load i64, ptr %135, align 8
  %137 = getelementptr inbounds nuw { i64, ptr }, ptr %4, i32 0, i32 1
  %138 = load ptr, ptr %137, align 8
  %139 = call i32 @jv_is_valid(i64 %136, ptr %138)
  %140 = icmp ne i32 %139, 0
  br i1 %140, label %191, label %141

141:                                              ; preds = %134
  %142 = getelementptr inbounds nuw { i64, ptr }, ptr %4, i32 0, i32 0
  %143 = load i64, ptr %142, align 8
  %144 = getelementptr inbounds nuw { i64, ptr }, ptr %4, i32 0, i32 1
  %145 = load ptr, ptr %144, align 8
  %146 = call { i64, ptr } @jv_copy(i64 %143, ptr %145)
  %147 = getelementptr inbounds nuw { i64, ptr }, ptr %16, i32 0, i32 0
  %148 = extractvalue { i64, ptr } %146, 0
  store i64 %148, ptr %147, align 8
  %149 = getelementptr inbounds nuw { i64, ptr }, ptr %16, i32 0, i32 1
  %150 = extractvalue { i64, ptr } %146, 1
  store ptr %150, ptr %149, align 8
  %151 = getelementptr inbounds nuw { i64, ptr }, ptr %16, i32 0, i32 0
  %152 = load i64, ptr %151, align 8
  %153 = getelementptr inbounds nuw { i64, ptr }, ptr %16, i32 0, i32 1
  %154 = load ptr, ptr %153, align 8
  %155 = call i32 @jv_invalid_has_msg(i64 %152, ptr %154)
  %156 = icmp ne i32 %155, 0
  br i1 %156, label %157, label %191

157:                                              ; preds = %141
  call void @llvm.lifetime.start.p0(i64 16, ptr %17) #6
  %158 = getelementptr inbounds nuw { i64, ptr }, ptr %4, i32 0, i32 0
  %159 = load i64, ptr %158, align 8
  %160 = getelementptr inbounds nuw { i64, ptr }, ptr %4, i32 0, i32 1
  %161 = load ptr, ptr %160, align 8
  %162 = call { i64, ptr } @jv_invalid_get_msg(i64 %159, ptr %161)
  %163 = getelementptr inbounds nuw { i64, ptr }, ptr %17, i32 0, i32 0
  %164 = extractvalue { i64, ptr } %162, 0
  store i64 %164, ptr %163, align 8
  %165 = getelementptr inbounds nuw { i64, ptr }, ptr %17, i32 0, i32 1
  %166 = extractvalue { i64, ptr } %162, 1
  store ptr %166, ptr %165, align 8
  call void @llvm.lifetime.start.p0(i64 16, ptr %18) #6
  %167 = getelementptr inbounds nuw { i64, ptr }, ptr %17, i32 0, i32 0
  %168 = load i64, ptr %167, align 8
  %169 = getelementptr inbounds nuw { i64, ptr }, ptr %17, i32 0, i32 1
  %170 = load ptr, ptr %169, align 8
  %171 = call ptr @jv_string_value(i64 %168, ptr %170)
  %172 = load ptr, ptr %5, align 8, !tbaa !37
  %173 = call { i64, ptr } (ptr, ...) @jv_string_fmt(ptr noundef @.str.11, ptr noundef %171, ptr noundef %172)
  %174 = getelementptr inbounds nuw { i64, ptr }, ptr %19, i32 0, i32 0
  %175 = extractvalue { i64, ptr } %173, 0
  store i64 %175, ptr %174, align 8
  %176 = getelementptr inbounds nuw { i64, ptr }, ptr %19, i32 0, i32 1
  %177 = extractvalue { i64, ptr } %173, 1
  store ptr %177, ptr %176, align 8
  %178 = getelementptr inbounds nuw { i64, ptr }, ptr %19, i32 0, i32 0
  %179 = load i64, ptr %178, align 8
  %180 = getelementptr inbounds nuw { i64, ptr }, ptr %19, i32 0, i32 1
  %181 = load ptr, ptr %180, align 8
  %182 = call { i64, ptr } @jv_invalid_with_msg(i64 %179, ptr %181)
  %183 = getelementptr inbounds nuw { i64, ptr }, ptr %18, i32 0, i32 0
  %184 = extractvalue { i64, ptr } %182, 0
  store i64 %184, ptr %183, align 8
  %185 = getelementptr inbounds nuw { i64, ptr }, ptr %18, i32 0, i32 1
  %186 = extractvalue { i64, ptr } %182, 1
  store ptr %186, ptr %185, align 8
  call void @llvm.memcpy.p0.p0.i64(ptr align 8 %4, ptr align 8 %18, i64 16, i1 false), !tbaa.struct !18
  call void @llvm.lifetime.end.p0(i64 16, ptr %18) #6
  %187 = getelementptr inbounds nuw { i64, ptr }, ptr %17, i32 0, i32 0
  %188 = load i64, ptr %187, align 8
  %189 = getelementptr inbounds nuw { i64, ptr }, ptr %17, i32 0, i32 1
  %190 = load ptr, ptr %189, align 8
  call void @jv_free(i64 %188, ptr %190)
  call void @llvm.lifetime.end.p0(i64 16, ptr %17) #6
  br label %191

191:                                              ; preds = %157, %141, %134
  call void @llvm.lifetime.end.p0(i64 208, ptr %8) #6
  %192 = load { i64, ptr }, ptr %4, align 8
  ret { i64, ptr } %192
}