; Function Attrs: nounwind uwtable
define dso_local { i64, ptr } @jv_parse_sized_custom_flags(ptr noundef %0, i32 noundef %1, i32 noundef %2) local_unnamed_addr #0 {
  %4 = alloca %struct.jv_parser, align 8
  call void @llvm.lifetime.start.p0(i64 208, ptr nonnull %4) #9
  call fastcc void @parser_init(ptr noundef nonnull %4, i32 noundef %2)
  %5 = getelementptr inbounds nuw i8, ptr %4, i64 24
  %6 = icmp sgt i32 %1, 0
  br i1 %6, label %.lr.ph.i, label %jv_parser_set_buf.exit

.lr.ph.i:                                         ; preds = %3
  %.promoted.i = load i32, ptr %5, align 8, !tbaa !25
  br label %7

7:                                                ; preds = %10, %.lr.ph.i
  %8 = phi i32 [ %.promoted.i, %.lr.ph.i ], [ %.sink.i, %10 ]
  %.020.i = phi ptr [ %0, %.lr.ph.i ], [ %.1.i, %10 ]
  %.01619.i = phi i32 [ %1, %.lr.ph.i ], [ %.117.i, %10 ]
  %9 = icmp ult i32 %8, 3
  br i1 %9, label %10, label %jv_parser_set_buf.exit

10:                                               ; preds = %7
  %11 = zext nneg i32 %8 to i64
  %12 = load i8, ptr %.020.i, align 1, !tbaa !15
  %13 = getelementptr inbounds nuw [3 x i8], ptr @UTF8_BOM, i64 0, i64 %11
  %14 = load i8, ptr %13, align 1, !tbaa !15
  %15 = icmp eq i8 %12, %14
  %16 = add nuw nsw i32 %8, 1
  %17 = icmp eq i32 %8, 0
  %..i = select i1 %17, i32 3, i32 255
  %.sink.i = select i1 %15, i32 %16, i32 %..i
  %18 = sext i1 %15 to i32
  %.117.i = add nsw i32 %.01619.i, %18
  %.1.idx.i = zext i1 %15 to i64
  %.1.i = getelementptr inbounds nuw i8, ptr %.020.i, i64 %.1.idx.i
  store i32 %.sink.i, ptr %5, align 8, !tbaa !25
  %.not49 = icmp eq i32 %.117.i, 0
  br i1 %.not49, label %jv_parser_set_buf.exit, label %7, !llvm.loop !26

jv_parser_set_buf.exit:                           ; preds = %7, %10, %3
  %.016.lcssa.i = phi i32 [ %1, %3 ], [ %.01619.i, %7 ], [ 0, %10 ]
  %.0.lcssa.i = phi ptr [ %0, %3 ], [ %.020.i, %7 ], [ %.1.i, %10 ]
  store ptr %.0.lcssa.i, ptr %4, align 8, !tbaa !22
  %19 = getelementptr inbounds nuw i8, ptr %4, i64 8
  store i32 %.016.lcssa.i, ptr %19, align 8, !tbaa !23
  %20 = getelementptr inbounds nuw i8, ptr %4, i64 12
  store i32 0, ptr %20, align 4, !tbaa !24
  %21 = getelementptr inbounds nuw i8, ptr %4, i64 16
  store i32 0, ptr %21, align 8, !tbaa !28
  %22 = call { i64, ptr } @jv_parser_next(ptr noundef nonnull %4)
  %23 = extractvalue { i64, ptr } %22, 0
  %24 = extractvalue { i64, ptr } %22, 1
  %25 = call i32 @jv_get_kind(i64 %23, ptr %24) #9
  %.not50 = icmp eq i32 %25, 0
  br i1 %.not50, label %45, label %26

26:                                               ; preds = %jv_parser_set_buf.exit
  %27 = call { i64, ptr } @jv_parser_next(ptr noundef nonnull %4)
  %28 = extractvalue { i64, ptr } %27, 0
  %29 = extractvalue { i64, ptr } %27, 1
  %30 = call i32 @jv_get_kind(i64 %28, ptr %29) #9
  %.not = icmp eq i32 %30, 0
  br i1 %.not, label %38, label %31

31:                                               ; preds = %26
  call void @jv_free(i64 %23, ptr %24) #9
  call void @jv_free(i64 %28, ptr %29) #9
  %32 = call { i64, ptr } @jv_string(ptr noundef nonnull @.str.9) #9
  %33 = extractvalue { i64, ptr } %32, 0
  %34 = extractvalue { i64, ptr } %32, 1
  %35 = call { i64, ptr } @jv_invalid_with_msg(i64 %33, ptr %34) #9
  %36 = extractvalue { i64, ptr } %35, 0
  %37 = extractvalue { i64, ptr } %35, 1
  br label %57

38:                                               ; preds = %26
  %39 = call { i64, ptr } @jv_copy(i64 %28, ptr %29) #9
  %40 = extractvalue { i64, ptr } %39, 0
  %41 = extractvalue { i64, ptr } %39, 1
  %42 = call i32 @jv_invalid_has_msg(i64 %40, ptr %41) #9
  %.not46 = icmp eq i32 %42, 0
  br i1 %.not46, label %44, label %43

43:                                               ; preds = %38
  call void @jv_free(i64 %23, ptr %24) #9
  br label %57

44:                                               ; preds = %38
  call void @jv_free(i64 %28, ptr %29) #9
  br label %57

45:                                               ; preds = %jv_parser_set_buf.exit
  %46 = call { i64, ptr } @jv_copy(i64 %23, ptr %24) #9
  %47 = extractvalue { i64, ptr } %46, 0
  %48 = extractvalue { i64, ptr } %46, 1
  %49 = call i32 @jv_invalid_has_msg(i64 %47, ptr %48) #9
  %.not44 = icmp eq i32 %49, 0
  br i1 %.not44, label %50, label %57

50:                                               ; preds = %45
  call void @jv_free(i64 %23, ptr %24) #9
  %51 = call { i64, ptr } @jv_string(ptr noundef nonnull @.str.10) #9
  %52 = extractvalue { i64, ptr } %51, 0
  %53 = extractvalue { i64, ptr } %51, 1
  %54 = call { i64, ptr } @jv_invalid_with_msg(i64 %52, ptr %53) #9
  %55 = extractvalue { i64, ptr } %54, 0
  %56 = extractvalue { i64, ptr } %54, 1
  br label %57

57:                                               ; preds = %31, %44, %43, %50, %45
  %.sroa.028.1 = phi i64 [ %23, %45 ], [ %55, %50 ], [ %36, %31 ], [ %28, %43 ], [ %23, %44 ]
  %.sroa.14.1 = phi ptr [ %24, %45 ], [ %56, %50 ], [ %37, %31 ], [ %29, %43 ], [ %24, %44 ]
  call fastcc void @parser_reset(ptr noundef nonnull %4)
  %58 = getelementptr inbounds nuw i8, ptr %4, i64 48
  %59 = load i64, ptr %58, align 8
  %60 = getelementptr inbounds nuw i8, ptr %4, i64 56
  %61 = load ptr, ptr %60, align 8
  call void @jv_free(i64 %59, ptr %61) #9
  %62 = getelementptr inbounds nuw i8, ptr %4, i64 72
  %63 = load i64, ptr %62, align 8
  %64 = getelementptr inbounds nuw i8, ptr %4, i64 80
  %65 = load ptr, ptr %64, align 8
  call void @jv_free(i64 %63, ptr %65) #9
  %66 = getelementptr inbounds nuw i8, ptr %4, i64 32
  %67 = load ptr, ptr %66, align 8, !tbaa !20
  call void @jv_mem_free(ptr noundef %67) #9
  %68 = getelementptr inbounds nuw i8, ptr %4, i64 104
  %69 = load ptr, ptr %68, align 8, !tbaa !21
  call void @jv_mem_free(ptr noundef %69) #9
  %70 = getelementptr inbounds nuw i8, ptr %4, i64 128
  call void @jvp_dtoa_context_free(ptr noundef nonnull %70) #9
  %71 = call i32 @jv_get_kind(i64 %.sroa.028.1, ptr %.sroa.14.1) #9
  %.not51 = icmp eq i32 %71, 0
  br i1 %.not51, label %72, label %88

72:                                               ; preds = %57
  %73 = call { i64, ptr } @jv_copy(i64 %.sroa.028.1, ptr %.sroa.14.1) #9
  %74 = extractvalue { i64, ptr } %73, 0
  %75 = extractvalue { i64, ptr } %73, 1
  %76 = call i32 @jv_invalid_has_msg(i64 %74, ptr %75) #9
  %.not48 = icmp eq i32 %76, 0
  br i1 %.not48, label %88, label %77

77:                                               ; preds = %72
  %78 = call { i64, ptr } @jv_invalid_get_msg(i64 %.sroa.028.1, ptr %.sroa.14.1) #9
  %79 = extractvalue { i64, ptr } %78, 0
  %80 = extractvalue { i64, ptr } %78, 1
  %81 = call ptr @jv_string_value(i64 %79, ptr %80) #9
  %82 = call { i64, ptr } (ptr, ...) @jv_string_fmt(ptr noundef nonnull @.str.11, ptr noundef %81, ptr noundef %0) #9
  %83 = extractvalue { i64, ptr } %82, 0
  %84 = extractvalue { i64, ptr } %82, 1
  %85 = call { i64, ptr } @jv_invalid_with_msg(i64 %83, ptr %84) #9
  %86 = extractvalue { i64, ptr } %85, 0
  %87 = extractvalue { i64, ptr } %85, 1
  call void @jv_free(i64 %79, ptr %80) #9
  br label %88

88:                                               ; preds = %77, %72, %57
  %.sroa.028.2 = phi i64 [ %.sroa.028.1, %57 ], [ %86, %77 ], [ %.sroa.028.1, %72 ]
  %.sroa.14.2 = phi ptr [ %.sroa.14.1, %57 ], [ %87, %77 ], [ %.sroa.14.1, %72 ]
  call void @llvm.lifetime.end.p0(i64 208, ptr nonnull %4) #9
  %.fca.0.insert = insertvalue { i64, ptr } poison, i64 %.sroa.028.2, 0
  %.fca.1.insert = insertvalue { i64, ptr } %.fca.0.insert, ptr %.sroa.14.2, 1
  ret { i64, ptr } %.fca.1.insert
}